target datalayout = "e-m:e-p270:32:32-p271:32:32-p272:64:64-i64:64-i128:128-f80:128-n8:16:32:64-S128"
target triple = "x86_64-pc-linux-gnu"

%"struct.duckdb_zstd::ldmRollingHashState_t" = type { i64, i64 }

; Function Attrs: mustprogress nounwind uwtable
define internal noundef i64 @_ZN11duckdb_zstdL18ZSTD_ldm_gear_feedEPNS_21ldmRollingHashState_tEPKhmPmPj(ptr noundef %0, ptr noundef %1, i64 noundef %2, ptr noundef %3, ptr noundef %4) #0 {
  %6 = alloca ptr, align 8
  %7 = alloca ptr, align 8
  %8 = alloca i64, align 8
  %9 = alloca ptr, align 8
  %10 = alloca ptr, align 8
  %11 = alloca i64, align 8
  %12 = alloca i64, align 8
  %13 = alloca i64, align 8
  store ptr %0, ptr %6, align 8, !tbaa !3
  store ptr %1, ptr %7, align 8, !tbaa !21
  store i64 %2, ptr %8, align 8, !tbaa !18
  store ptr %3, ptr %9, align 8, !tbaa !27
  store ptr %4, ptr %10, align 8, !tbaa !41
  call void @llvm.lifetime.start.p0(i64 8, ptr %11) #13
  call void @llvm.lifetime.start.p0(i64 8, ptr %12) #13
  call void @llvm.lifetime.start.p0(i64 8, ptr %13) #13
  %14 = load ptr, ptr %6, align 8, !tbaa !3
  %15 = getelementptr inbounds nuw %"struct.duckdb_zstd::ldmRollingHashState_t", ptr %14, i32 0, i32 0
  %16 = load i64, ptr %15, align 8, !tbaa !38
  store i64 %16, ptr %12, align 8, !tbaa !18
  %17 = load ptr, ptr %6, align 8, !tbaa !3
  %18 = getelementptr inbounds nuw %"struct.duckdb_zstd::ldmRollingHashState_t", ptr %17, i32 0, i32 1
  %19 = load i64, ptr %18, align 8, !tbaa !40
  store i64 %19, ptr %13, align 8, !tbaa !18
  store i64 0, ptr %11, align 8, !tbaa !18
  br label %20

20:                                               ; preds = %185, %5
  %21 = load i64, ptr %11, align 8, !tbaa !18
  %22 = add i64 %21, 3
  %23 = load i64, ptr %8, align 8, !tbaa !18
  %24 = icmp ult i64 %22, %23
  br i1 %24, label %25, label %186

25:                                               ; preds = %20
  br label %26

26:                                               ; preds = %25
  %27 = load i64, ptr %12, align 8, !tbaa !18
  %28 = shl i64 %27, 1
  %29 = load ptr, ptr %7, align 8, !tbaa !21
  %30 = load i64, ptr %11, align 8, !tbaa !18
  %31 = getelementptr inbounds nuw i8, ptr %29, i64 %30
  %32 = load i8, ptr %31, align 1, !tbaa !43
  %33 = zext i8 %32 to i32
  %34 = and i32 %33, 255
  %35 = sext i32 %34 to i64
  %36 = getelementptr inbounds [256 x i64], ptr @_ZN11duckdb_zstdL16ZSTD_ldm_gearTabE, i64 0, i64 %35
  %37 = load i64, ptr %36, align 8, !tbaa !18
  %38 = add i64 %28, %37
  store i64 %38, ptr %12, align 8, !tbaa !18
  %39 = load i64, ptr %11, align 8, !tbaa !18
  %40 = add i64 %39, 1
  store i64 %40, ptr %11, align 8, !tbaa !18
  %41 = load i64, ptr %12, align 8, !tbaa !18
  %42 = load i64, ptr %13, align 8, !tbaa !18
  %43 = and i64 %41, %42
  %44 = icmp eq i64 %43, 0
  %45 = zext i1 %44 to i64
  %46 = call i64 @llvm.expect.i64(i64 %45, i64 0)
  %47 = icmp ne i64 %46, 0
  br i1 %47, label %48, label %63

48:                                               ; preds = %26
  %49 = load i64, ptr %11, align 8, !tbaa !18
  %50 = load ptr, ptr %9, align 8, !tbaa !27
  %51 = load ptr, ptr %10, align 8, !tbaa !41
  %52 = load i32, ptr %51, align 4, !tbaa !23
  %53 = zext i32 %52 to i64
  %54 = getelementptr inbounds nuw i64, ptr %50, i64 %53
  store i64 %49, ptr %54, align 8, !tbaa !18
  %55 = load ptr, ptr %10, align 8, !tbaa !41
  %56 = load i32, ptr %55, align 4, !tbaa !23
  %57 = add i32 %56, 1
  store i32 %57, ptr %55, align 4, !tbaa !23
  %58 = load ptr, ptr %10, align 8, !tbaa !41
  %59 = load i32, ptr %58, align 4, !tbaa !23
  %60 = icmp eq i32 %59, 64
  br i1 %60, label %61, label %62

61:                                               ; preds = %48
  br label %233

62:                                               ; preds = %48
  br label %63

63:                                               ; preds = %62, %26
  br label %64

64:                                               ; preds = %63
  br label %65

65:                                               ; preds = %64
  br label %66

66:                                               ; preds = %65
  %67 = load i64, ptr %12, align 8, !tbaa !18
  %68 = shl i64 %67, 1
  %69 = load ptr, ptr %7, align 8, !tbaa !21
  %70 = load i64, ptr %11, align 8, !tbaa !18
  %71 = getelementptr inbounds nuw i8, ptr %69, i64 %70
  %72 = load i8, ptr %71, align 1, !tbaa !43
  %73 = zext i8 %72 to i32
  %74 = and i32 %73, 255
  %75 = sext i32 %74 to i64
  %76 = getelementptr inbounds [256 x i64], ptr @_ZN11duckdb_zstdL16ZSTD_ldm_gearTabE, i64 0, i64 %75
  %77 = load i64, ptr %76, align 8, !tbaa !18
  %78 = add i64 %68, %77
  store i64 %78, ptr %12, align 8, !tbaa !18
  %79 = load i64, ptr %11, align 8, !tbaa !18
  %80 = add i64 %79, 1
  store i64 %80, ptr %11, align 8, !tbaa !18
  %81 = load i64, ptr %12, align 8, !tbaa !18
  %82 = load i64, ptr %13, align 8, !tbaa !18
  %83 = and i64 %81, %82
  %84 = icmp eq i64 %83, 0
  %85 = zext i1 %84 to i64
  %86 = call i64 @llvm.expect.i64(i64 %85, i64 0)
  %87 = icmp ne i64 %86, 0
  br i1 %87, label %88, label %103

88:                                               ; preds = %66
  %89 = load i64, ptr %11, align 8, !tbaa !18
  %90 = load ptr, ptr %9, align 8, !tbaa !27
  %91 = load ptr, ptr %10, align 8, !tbaa !41
  %92 = load i32, ptr %91, align 4, !tbaa !23
  %93 = zext i32 %92 to i64
  %94 = getelementptr inbounds nuw i64, ptr %90, i64 %93
  store i64 %89, ptr %94, align 8, !tbaa !18
  %95 = load ptr, ptr %10, align 8, !tbaa !41
  %96 = load i32, ptr %95, align 4, !tbaa !23
  %97 = add i32 %96, 1
  store i32 %97, ptr %95, align 4, !tbaa !23
  %98 = load ptr, ptr %10, align 8, !tbaa !41
  %99 = load i32, ptr %98, align 4, !tbaa !23
  %100 = icmp eq i32 %99, 64
  br i1 %100, label %101, label %102

101:                                              ; preds = %88
  br label %233

102:                                              ; preds = %88
  br label %103

103:                                              ; preds = %102, %66
  br label %104

104:                                              ; preds = %103
  br label %105

105:                                              ; preds = %104
  br label %106

106:                                              ; preds = %105
  %107 = load i64, ptr %12, align 8, !tbaa !18
  %108 = shl i64 %107, 1
  %109 = load ptr, ptr %7, align 8, !tbaa !21
  %110 = load i64, ptr %11, align 8, !tbaa !18
  %111 = getelementptr inbounds nuw i8, ptr %109, i64 %110
  %112 = load i8, ptr %111, align 1, !tbaa !43
  %113 = zext i8 %112 to i32
  %114 = and i32 %113, 255
  %115 = sext i32 %114 to i64
  %116 = getelementptr inbounds [256 x i64], ptr @_ZN11duckdb_zstdL16ZSTD_ldm_gearTabE, i64 0, i64 %115
  %117 = load i64, ptr %116, align 8, !tbaa !18
  %118 = add i64 %108, %117
  store i64 %118, ptr %12, align 8, !tbaa !18
  %119 = load i64, ptr %11, align 8, !tbaa !18
  %120 = add i64 %119, 1
  store i64 %120, ptr %11, align 8, !tbaa !18
  %121 = load i64, ptr %12, align 8, !tbaa !18
  %122 = load i64, ptr %13, align 8, !tbaa !18
  %123 = and i64 %121, %122
  %124 = icmp eq i64 %123, 0
  %125 = zext i1 %124 to i64
  %126 = call i64 @llvm.expect.i64(i64 %125, i64 0)
  %127 = icmp ne i64 %126, 0
  br i1 %127, label %128, label %143

128:                                              ; preds = %106
  %129 = load i64, ptr %11, align 8, !tbaa !18
  %130 = load ptr, ptr %9, align 8, !tbaa !27
  %131 = load ptr, ptr %10, align 8, !tbaa !41
  %132 = load i32, ptr %131, align 4, !tbaa !23
  %133 = zext i32 %132 to i64
  %134 = getelementptr inbounds nuw i64, ptr %130, i64 %133
  store i64 %129, ptr %134, align 8, !tbaa !18
  %135 = load ptr, ptr %10, align 8, !tbaa !41
  %136 = load i32, ptr %135, align 4, !tbaa !23
  %137 = add i32 %136, 1
  store i32 %137, ptr %135, align 4, !tbaa !23
  %138 = load ptr, ptr %10, align 8, !tbaa !41
  %139 = load i32, ptr %138, align 4, !tbaa !23
  %140 = icmp eq i32 %139, 64
  br i1 %140, label %141, label %142

141:                                              ; preds = %128
  br label %233

142:                                              ; preds = %128
  br label %143

143:                                              ; preds = %142, %106
  br label %144

144:                                              ; preds = %143
  br label %145

145:                                              ; preds = %144
  br label %146

146:                                              ; preds = %145
  %147 = load i64, ptr %12, align 8, !tbaa !18
  %148 = shl i64 %147, 1
  %149 = load ptr, ptr %7, align 8, !tbaa !21
  %150 = load i64, ptr %11, align 8, !tbaa !18
  %151 = getelementptr inbounds nuw i8, ptr %149, i64 %150
  %152 = load i8, ptr %151, align 1, !tbaa !43
  %153 = zext i8 %152 to i32
  %154 = and i32 %153, 255
  %155 = sext i32 %154 to i64
  %156 = getelementptr inbounds [256 x i64], ptr @_ZN11duckdb_zstdL16ZSTD_ldm_gearTabE, i64 0, i64 %155
  %157 = load i64, ptr %156, align 8, !tbaa !18
  %158 = add i64 %148, %157
  store i64 %158, ptr %12, align 8, !tbaa !18
  %159 = load i64, ptr %11, align 8, !tbaa !18
  %160 = add i64 %159, 1
  store i64 %160, ptr %11, align 8, !tbaa !18
  %161 = load i64, ptr %12, align 8, !tbaa !18
  %162 = load i64, ptr %13, align 8, !tbaa !18
  %163 = and i64 %161, %162
  %164 = icmp eq i64 %163, 0
  %165 = zext i1 %164 to i64
  %166 = call i64 @llvm.expect.i64(i64 %165, i64 0)
  %167 = icmp ne i64 %166, 0
  br i1 %167, label %168, label %183

168:                                              ; preds = %146
  %169 = load i64, ptr %11, align 8, !tbaa !18
  %170 = load ptr, ptr %9, align 8, !tbaa !27
  %171 = load ptr, ptr %10, align 8, !tbaa !41
  %172 = load i32, ptr %171, align 4, !tbaa !23
  %173 = zext i32 %172 to i64
  %174 = getelementptr inbounds nuw i64, ptr %170, i64 %173
  store i64 %169, ptr %174, align 8, !tbaa !18
  %175 = load ptr, ptr %10, align 8, !tbaa !41
  %176 = load i32, ptr %175, align 4, !tbaa !23
  %177 = add i32 %176, 1
  store i32 %177, ptr %175, align 4, !tbaa !23
  %178 = load ptr, ptr %10, align 8, !tbaa !41
  %179 = load i32, ptr %178, align 4, !tbaa !23
  %180 = icmp eq i32 %179, 64
  br i1 %180, label %181, label %182

181:                                              ; preds = %168
  br label %233

182:                                              ; preds = %168
  br label %183

183:                                              ; preds = %182, %146
  br label %184

184:                                              ; preds = %183
  br label %185

185:                                              ; preds = %184
  br label %20, !llvm.loop !44

186:                                              ; preds = %20
  br label %187

187:                                              ; preds = %231, %186
  %188 = load i64, ptr %11, align 8, !tbaa !18
  %189 = load i64, ptr %8, align 8, !tbaa !18
  %190 = icmp ult i64 %188, %189
  br i1 %190, label %191, label %232

191:                                              ; preds = %187
  br label %192

192:                                              ; preds = %191
  %193 = load i64, ptr %12, align 8, !tbaa !18
  %194 = shl i64 %193, 1
  %195 = load ptr, ptr %7, align 8, !tbaa !21
  %196 = load i64, ptr %11, align 8, !tbaa !18
  %197 = getelementptr inbounds nuw i8, ptr %195, i64 %196
  %198 = load i8, ptr %197, align 1, !tbaa !43
  %199 = zext i8 %198 to i32
  %200 = and i32 %199, 255
  %201 = sext i32 %200 to i64
  %202 = getelementptr inbounds [256 x i64], ptr @_ZN11duckdb_zstdL16ZSTD_ldm_gearTabE, i64 0, i64 %201
  %203 = load i64, ptr %202, align 8, !tbaa !18
  %204 = add i64 %194, %203
  store i64 %204, ptr %12, align 8, !tbaa !18
  %205 = load i64, ptr %11, align 8, !tbaa !18
  %206 = add i64 %205, 1
  store i64 %206, ptr %11, align 8, !tbaa !18
  %207 = load i64, ptr %12, align 8, !tbaa !18
  %208 = load i64, ptr %13, align 8, !tbaa !18
  %209 = and i64 %207, %208
  %210 = icmp eq i64 %209, 0
  %211 = zext i1 %210 to i64
  %212 = call i64 @llvm.expect.i64(i64 %211, i64 0)
  %213 = icmp ne i64 %212, 0
  br i1 %213, label %214, label %229

214:                                              ; preds = %192
  %215 = load i64, ptr %11, align 8, !tbaa !18
  %216 = load ptr, ptr %9, align 8, !tbaa !27
  %217 = load ptr, ptr %10, align 8, !tbaa !41
  %218 = load i32, ptr %217, align 4, !tbaa !23
  %219 = zext i32 %218 to i64
  %220 = getelementptr inbounds nuw i64, ptr %216, i64 %219
  store i64 %215, ptr %220, align 8, !tbaa !18
  %221 = load ptr, ptr %10, align 8, !tbaa !41
  %222 = load i32, ptr %221, align 4, !tbaa !23
  %223 = add i32 %222, 1
  store i32 %223, ptr %221, align 4, !tbaa !23
  %224 = load ptr, ptr %10, align 8, !tbaa !41
  %225 = load i32, ptr %224, align 4, !tbaa !23
  %226 = icmp eq i32 %225, 64
  br i1 %226, label %227, label %228

227:                                              ; preds = %214
  br label %233

228:                                              ; preds = %214
  br label %229

229:                                              ; preds = %228, %192
  br label %230

230:                                              ; preds = %229
  br label %231

231:                                              ; preds = %230
  br label %187, !llvm.loop !45

232:                                              ; preds = %187
  br label %233

233:                                              ; preds = %232, %227, %181, %141, %101, %61
  %234 = load i64, ptr %12, align 8, !tbaa !18
  %235 = load ptr, ptr %6, align 8, !tbaa !3
  %236 = getelementptr inbounds nuw %"struct.duckdb_zstd::ldmRollingHashState_t", ptr %235, i32 0, i32 0
  store i64 %234, ptr %236, align 8, !tbaa !38
  %237 = load i64, ptr %11, align 8, !tbaa !18
  call void @llvm.lifetime.end.p0(i64 8, ptr %13) #13
  call void @llvm.lifetime.end.p0(i64 8, ptr %12) #13
  call void @llvm.lifetime.end.p0(i64 8, ptr %11) #13
  ret i64 %237
}