; Function Attrs: mustprogress nofree norecurse nosync nounwind memory(argmem: readwrite) uwtable
define internal fastcc noundef i64 @_ZN11duckdb_zstdL18ZSTD_ldm_gear_feedEPNS_21ldmRollingHashState_tEPKhmPmPj(ptr noundef nonnull captures(none) %0, ptr noundef readonly captures(none) %1, i64 noundef %2, ptr noundef writeonly captures(none) %3, ptr noundef nonnull captures(none) %4) unnamed_addr #4 {
  %6 = load i64, ptr %0, align 8, !tbaa !22
  %7 = getelementptr inbounds nuw i8, ptr %0, i64 8
  %8 = load i64, ptr %7, align 8, !tbaa !25
  %9 = icmp ugt i64 %2, 3
  br i1 %9, label %.lr.ph, label %.preheader

.preheader:                                       ; preds = %78, %5
  %.063.lcssa = phi i64 [ %6, %5 ], [ %68, %78 ]
  %.0.lcssa = phi i64 [ 0, %5 ], [ %69, %78 ]
  %10 = icmp ult i64 %.0.lcssa, %2
  br i1 %10, label %.lr.ph76, label %.loopexit

.lr.ph:                                           ; preds = %5, %78
  %.072 = phi i64 [ %69, %78 ], [ 0, %5 ]
  %.06371 = phi i64 [ %68, %78 ], [ %6, %5 ]
  %11 = shl i64 %.06371, 1
  %12 = getelementptr inbounds nuw i8, ptr %1, i64 %.072
  %13 = load i8, ptr %12, align 1, !tbaa !30
  %14 = zext i8 %13 to i64
  %15 = getelementptr inbounds nuw [256 x i64], ptr @_ZN11duckdb_zstdL16ZSTD_ldm_gearTabE, i64 0, i64 %14
  %16 = load i64, ptr %15, align 8, !tbaa !27
  %17 = add i64 %16, %11
  %18 = or disjoint i64 %.072, 1
  %19 = and i64 %17, %8
  %20 = icmp eq i64 %19, 0
  br i1 %20, label %21, label %27, !prof !34

21:                                               ; preds = %.lr.ph
  %22 = load i32, ptr %4, align 4, !tbaa !26
  %23 = zext i32 %22 to i64
  %24 = getelementptr inbounds nuw i64, ptr %3, i64 %23
  store i64 %18, ptr %24, align 8, !tbaa !27
  %25 = add i32 %22, 1
  store i32 %25, ptr %4, align 4, !tbaa !26
  %26 = icmp eq i32 %25, 64
  br i1 %26, label %.loopexit, label %27

27:                                               ; preds = %.lr.ph, %21
  %28 = shl i64 %17, 1
  %29 = getelementptr inbounds nuw i8, ptr %1, i64 %18
  %30 = load i8, ptr %29, align 1, !tbaa !30
  %31 = zext i8 %30 to i64
  %32 = getelementptr inbounds nuw [256 x i64], ptr @_ZN11duckdb_zstdL16ZSTD_ldm_gearTabE, i64 0, i64 %31
  %33 = load i64, ptr %32, align 8, !tbaa !27
  %34 = add i64 %33, %28
  %35 = or disjoint i64 %.072, 2
  %36 = and i64 %34, %8
  %37 = icmp eq i64 %36, 0
  br i1 %37, label %38, label %44, !prof !34

38:                                               ; preds = %27
  %39 = load i32, ptr %4, align 4, !tbaa !26
  %40 = zext i32 %39 to i64
  %41 = getelementptr inbounds nuw i64, ptr %3, i64 %40
  store i64 %35, ptr %41, align 8, !tbaa !27
  %42 = add i32 %39, 1
  store i32 %42, ptr %4, align 4, !tbaa !26
  %43 = icmp eq i32 %42, 64
  br i1 %43, label %.loopexit, label %44

44:                                               ; preds = %27, %38
  %45 = shl i64 %34, 1
  %46 = getelementptr inbounds nuw i8, ptr %1, i64 %35
  %47 = load i8, ptr %46, align 1, !tbaa !30
  %48 = zext i8 %47 to i64
  %49 = getelementptr inbounds nuw [256 x i64], ptr @_ZN11duckdb_zstdL16ZSTD_ldm_gearTabE, i64 0, i64 %48
  %50 = load i64, ptr %49, align 8, !tbaa !27
  %51 = add i64 %50, %45
  %52 = or disjoint i64 %.072, 3
  %53 = and i64 %51, %8
  %54 = icmp eq i64 %53, 0
  br i1 %54, label %55, label %61, !prof !34

55:                                               ; preds = %44
  %56 = load i32, ptr %4, align 4, !tbaa !26
  %57 = zext i32 %56 to i64
  %58 = getelementptr inbounds nuw i64, ptr %3, i64 %57
  store i64 %52, ptr %58, align 8, !tbaa !27
  %59 = add i32 %56, 1
  store i32 %59, ptr %4, align 4, !tbaa !26
  %60 = icmp eq i32 %59, 64
  br i1 %60, label %.loopexit, label %61

61:                                               ; preds = %44, %55
  %62 = shl i64 %51, 1
  %63 = getelementptr inbounds nuw i8, ptr %1, i64 %52
  %64 = load i8, ptr %63, align 1, !tbaa !30
  %65 = zext i8 %64 to i64
  %66 = getelementptr inbounds nuw [256 x i64], ptr @_ZN11duckdb_zstdL16ZSTD_ldm_gearTabE, i64 0, i64 %65
  %67 = load i64, ptr %66, align 8, !tbaa !27
  %68 = add i64 %67, %62
  %69 = add i64 %.072, 4
  %70 = and i64 %68, %8
  %71 = icmp eq i64 %70, 0
  br i1 %71, label %72, label %78, !prof !34

72:                                               ; preds = %61
  %73 = load i32, ptr %4, align 4, !tbaa !26
  %74 = zext i32 %73 to i64
  %75 = getelementptr inbounds nuw i64, ptr %3, i64 %74
  store i64 %69, ptr %75, align 8, !tbaa !27
  %76 = add i32 %73, 1
  store i32 %76, ptr %4, align 4, !tbaa !26
  %77 = icmp eq i32 %76, 64
  br i1 %77, label %.loopexit, label %78

78:                                               ; preds = %72, %61
  %79 = or disjoint i64 %69, 3
  %80 = icmp ult i64 %79, %2
  br i1 %80, label %.lr.ph, label %.preheader, !llvm.loop !35

.lr.ph76:                                         ; preds = %.preheader, %.lr.ph76.backedge
  %.275 = phi i64 [ %88, %.lr.ph76.backedge ], [ %.0.lcssa, %.preheader ]
  %.26574 = phi i64 [ %87, %.lr.ph76.backedge ], [ %.063.lcssa, %.preheader ]
  %81 = shl i64 %.26574, 1
  %82 = getelementptr inbounds nuw i8, ptr %1, i64 %.275
  %83 = load i8, ptr %82, align 1, !tbaa !30
  %84 = zext i8 %83 to i64
  %85 = getelementptr inbounds nuw [256 x i64], ptr @_ZN11duckdb_zstdL16ZSTD_ldm_gearTabE, i64 0, i64 %84
  %86 = load i64, ptr %85, align 8, !tbaa !27
  %87 = add i64 %86, %81
  %88 = add nuw i64 %.275, 1
  %89 = and i64 %87, %8
  %90 = icmp eq i64 %89, 0
  br i1 %90, label %91, label %98, !prof !34

91:                                               ; preds = %.lr.ph76
  %92 = load i32, ptr %4, align 4, !tbaa !26
  %93 = zext i32 %92 to i64
  %94 = getelementptr inbounds nuw i64, ptr %3, i64 %93
  store i64 %88, ptr %94, align 8, !tbaa !27
  %95 = add i32 %92, 1
  store i32 %95, ptr %4, align 4, !tbaa !26
  %96 = icmp ne i32 %95, 64
  %97 = icmp ult i64 %88, %2
  %or.cond = select i1 %96, i1 %97, i1 false
  br i1 %or.cond, label %.lr.ph76.backedge, label %.loopexit

98:                                               ; preds = %.lr.ph76
  %.old = icmp ult i64 %88, %2
  br i1 %.old, label %.lr.ph76.backedge, label %.loopexit

.lr.ph76.backedge:                                ; preds = %98, %91
  br label %.lr.ph76, !llvm.loop !36

.loopexit:                                        ; preds = %72, %55, %38, %21, %91, %98, %.preheader
  %.164 = phi i64 [ %.063.lcssa, %.preheader ], [ %87, %98 ], [ %87, %91 ], [ %68, %72 ], [ %51, %55 ], [ %34, %38 ], [ %17, %21 ]
  %.1 = phi i64 [ %.0.lcssa, %.preheader ], [ %88, %98 ], [ %88, %91 ], [ %69, %72 ], [ %52, %55 ], [ %35, %38 ], [ %18, %21 ]
  store i64 %.164, ptr %0, align 8, !tbaa !22
  ret i64 %.1
}